target datalayout = "e-m:e-p270:32:32-p271:32:32-p272:64:64-i64:64-i128:128-f80:128-n8:16:32:64-S128"
target triple = "x86_64-pc-linux-gnu"

%struct.Aig_Man_t_ = type { ptr, ptr, ptr, ptr, ptr, ptr, ptr, %struct.Aig_Obj_t_, i32, i32, i32, i32, i32, i32, [7 x i32], i32, ptr, i32, ptr, i32, ptr, i32, i32, i32, ptr, i32, i32, i32, i32, i32, ptr, ptr, i32, ptr, ptr, i32, ptr, ptr, i32, i32, i32, ptr, ptr, ptr, ptr, ptr, ptr, ptr, ptr, ptr, ptr, ptr, ptr, ptr, ptr, i32, ptr, ptr, ptr, ptr, i32, i64, i64, i64, ptr, ptr }
%struct.Aig_Obj_t_ = type { %union.anon, ptr, ptr, i64, i32, i32, %union.anon.0 }
%union.anon = type { ptr }
%union.anon.0 = type { ptr }
%struct.Vec_Ptr_t_ = type { i32, i32, ptr }

; Function Attrs: inlinehint nounwind uwtable
define internal ptr @Aig_Regular(ptr noundef %0) #3 {
  %2 = alloca ptr, align 8
  store ptr %0, ptr %2, align 8, !tbaa !23
  %3 = load ptr, ptr %2, align 8, !tbaa !23
  %4 = ptrtoint ptr %3 to i64
  %5 = and i64 %4, -2
  %6 = inttoptr i64 %5 to ptr
  ret ptr %6
}

; Function Attrs: inlinehint nounwind uwtable
define internal ptr @Aig_ObjFanin0(ptr noundef %0) #3 {
  %2 = alloca ptr, align 8
  store ptr %0, ptr %2, align 8, !tbaa !23
  %3 = load ptr, ptr %2, align 8, !tbaa !23
  %4 = getelementptr inbounds nuw %struct.Aig_Obj_t_, ptr %3, i32 0, i32 1
  %5 = load ptr, ptr %4, align 8, !tbaa !32
  %6 = call ptr @Aig_Regular(ptr noundef %5)
  ret ptr %6
}

; Function Attrs: inlinehint nounwind uwtable
define internal i32 @Aig_ManRegNum(ptr noundef %0) #3 {
  %2 = alloca ptr, align 8
  store ptr %0, ptr %2, align 8, !tbaa !3
  %3 = load ptr, ptr %2, align 8, !tbaa !3
  %4 = getelementptr inbounds nuw %struct.Aig_Man_t_, ptr %3, i32 0, i32 8
  %5 = load i32, ptr %4, align 8, !tbaa !33
  ret i32 %5
}

; Function Attrs: inlinehint nounwind uwtable
define internal i32 @Aig_ManCoNum(ptr noundef %0) #3 {
  %2 = alloca ptr, align 8
  store ptr %0, ptr %2, align 8, !tbaa !3
  %3 = load ptr, ptr %2, align 8, !tbaa !3
  %4 = getelementptr inbounds nuw %struct.Aig_Man_t_, ptr %3, i32 0, i32 14
  %5 = getelementptr inbounds [7 x i32], ptr %4, i64 0, i64 3
  %6 = load i32, ptr %5, align 4, !tbaa !8
  ret i32 %6
}

; Function Attrs: inlinehint nounwind uwtable
define internal ptr @Vec_PtrEntry(ptr noundef %0, i32 noundef %1) #3 {
  %3 = alloca ptr, align 8
  %4 = alloca i32, align 4
  store ptr %0, ptr %3, align 8, !tbaa !28
  store i32 %1, ptr %4, align 4, !tbaa !8
  %5 = load ptr, ptr %3, align 8, !tbaa !28
  %6 = getelementptr inbounds nuw %struct.Vec_Ptr_t_, ptr %5, i32 0, i32 2
  %7 = load ptr, ptr %6, align 8, !tbaa !29
  %8 = load i32, ptr %4, align 4, !tbaa !8
  %9 = sext i32 %8 to i64
  %10 = getelementptr inbounds ptr, ptr %7, i64 %9
  %11 = load ptr, ptr %10, align 8, !tbaa !31
  ret ptr %11
}

; Function Attrs: inlinehint nounwind uwtable
define internal i32 @Vec_PtrSize(ptr noundef %0) #3 {
  %2 = alloca ptr, align 8
  store ptr %0, ptr %2, align 8, !tbaa !28
  %3 = load ptr, ptr %2, align 8, !tbaa !28
  %4 = getelementptr inbounds nuw %struct.Vec_Ptr_t_, ptr %3, i32 0, i32 1
  %5 = load i32, ptr %4, align 4, !tbaa !38
  ret i32 %5
}

; Function Attrs: nounwind uwtable
define i32 @Saig_ManReportComplements(ptr noundef %0) #0 {
  %2 = alloca ptr, align 8
  %3 = alloca ptr, align 8
  %4 = alloca ptr, align 8
  %5 = alloca i32, align 4
  %6 = alloca i32, align 4
  store ptr %0, ptr %2, align 8, !tbaa !3
  call void @llvm.lifetime.start.p0(i64 8, ptr %3) #4
  call void @llvm.lifetime.start.p0(i64 8, ptr %4) #4
  call void @llvm.lifetime.start.p0(i64 4, ptr %5) #4
  call void @llvm.lifetime.start.p0(i64 4, ptr %6) #4
  store i32 0, ptr %6, align 4, !tbaa !8
  store i32 0, ptr %5, align 4, !tbaa !8
  br label %7

7:                                                ; preds = %28, %1
  %8 = load i32, ptr %5, align 4, !tbaa !8
  %9 = load ptr, ptr %2, align 8, !tbaa !3
  %10 = getelementptr inbounds nuw %struct.Aig_Man_t_, ptr %9, i32 0, i32 4
  %11 = load ptr, ptr %10, align 8, !tbaa !34
  %12 = call i32 @Vec_PtrSize(ptr noundef %11)
  %13 = icmp slt i32 %8, %12
  br i1 %13, label %14, label %20

14:                                               ; preds = %7
  %15 = load ptr, ptr %2, align 8, !tbaa !3
  %16 = getelementptr inbounds nuw %struct.Aig_Man_t_, ptr %15, i32 0, i32 4
  %17 = load ptr, ptr %16, align 8, !tbaa !34
  %18 = load i32, ptr %5, align 4, !tbaa !8
  %19 = call ptr @Vec_PtrEntry(ptr noundef %17, i32 noundef %18)
  store ptr %19, ptr %3, align 8, !tbaa !23
  br label %20

20:                                               ; preds = %14, %7
  %21 = phi i1 [ false, %7 ], [ true, %14 ]
  br i1 %21, label %22, label %31

22:                                               ; preds = %20
  %23 = load ptr, ptr %3, align 8, !tbaa !23
  %24 = icmp eq ptr %23, null
  br i1 %24, label %25, label %26

25:                                               ; preds = %22
  br label %27

26:                                               ; preds = %22
  br label %27

27:                                               ; preds = %26, %25
  br label %28

28:                                               ; preds = %27
  %29 = load i32, ptr %5, align 4, !tbaa !8
  %30 = add nsw i32 %29, 1
  store i32 %30, ptr %5, align 4, !tbaa !8
  br label %7, !llvm.loop !35

31:                                               ; preds = %20
  %32 = load ptr, ptr %2, align 8, !tbaa !3
  %33 = call i32 @Aig_ManCoNum(ptr noundef %32)
  %34 = load ptr, ptr %2, align 8, !tbaa !3
  %35 = call i32 @Aig_ManRegNum(ptr noundef %34)
  %36 = sub nsw i32 %33, %35
  store i32 %36, ptr %5, align 4, !tbaa !8
  br label %37

37:                                               ; preds = %72, %31
  %38 = load i32, ptr %5, align 4, !tbaa !8
  %39 = load ptr, ptr %2, align 8, !tbaa !3
  %40 = getelementptr inbounds nuw %struct.Aig_Man_t_, ptr %39, i32 0, i32 3
  %41 = load ptr, ptr %40, align 8, !tbaa !10
  %42 = call i32 @Vec_PtrSize(ptr noundef %41)
  %43 = icmp slt i32 %38, %42
  br i1 %43, label %44, label %50

44:                                               ; preds = %37
  %45 = load ptr, ptr %2, align 8, !tbaa !3
  %46 = getelementptr inbounds nuw %struct.Aig_Man_t_, ptr %45, i32 0, i32 3
  %47 = load ptr, ptr %46, align 8, !tbaa !10
  %48 = load i32, ptr %5, align 4, !tbaa !8
  %49 = call ptr @Vec_PtrEntry(ptr noundef %47, i32 noundef %48)
  store ptr %49, ptr %3, align 8, !tbaa !23
  br label %50

50:                                               ; preds = %44, %37
  %51 = phi i1 [ false, %37 ], [ true, %44 ]
  br i1 %51, label %52, label %75

52:                                               ; preds = %50
  %53 = load ptr, ptr %3, align 8, !tbaa !23
  %54 = call ptr @Aig_ObjFanin0(ptr noundef %53)
  store ptr %54, ptr %4, align 8, !tbaa !23
  %55 = load ptr, ptr %4, align 8, !tbaa !23
  %56 = getelementptr inbounds nuw %struct.Aig_Obj_t_, ptr %55, i32 0, i32 3
  %57 = load i64, ptr %56, align 8
  %58 = lshr i64 %57, 4
  %59 = and i64 %58, 1
  %60 = trunc i64 %59 to i32
  %61 = icmp ne i32 %60, 0
  br i1 %61, label %62, label %65

62:                                               ; preds = %52
  %63 = load i32, ptr %6, align 4, !tbaa !8
  %64 = add nsw i32 %63, 1
  store i32 %64, ptr %6, align 4, !tbaa !8
  br label %71

65:                                               ; preds = %52
  %66 = load ptr, ptr %4, align 8, !tbaa !23
  %67 = getelementptr inbounds nuw %struct.Aig_Obj_t_, ptr %66, i32 0, i32 3
  %68 = load i64, ptr %67, align 8
  %69 = and i64 %68, -17
  %70 = or i64 %69, 16
  store i64 %70, ptr %67, align 8
  br label %71

71:                                               ; preds = %65, %62
  br label %72

72:                                               ; preds = %71
  %73 = load i32, ptr %5, align 4, !tbaa !8
  %74 = add nsw i32 %73, 1
  store i32 %74, ptr %5, align 4, !tbaa !8
  br label %37, !llvm.loop !36

75:                                               ; preds = %50
  %76 = load ptr, ptr %2, align 8, !tbaa !3
  %77 = call i32 @Aig_ManCoNum(ptr noundef %76)
  %78 = load ptr, ptr %2, align 8, !tbaa !3
  %79 = call i32 @Aig_ManRegNum(ptr noundef %78)
  %80 = sub nsw i32 %77, %79
  store i32 %80, ptr %5, align 4, !tbaa !8
  br label %81

81:                                               ; preds = %104, %75
  %82 = load i32, ptr %5, align 4, !tbaa !8
  %83 = load ptr, ptr %2, align 8, !tbaa !3
  %84 = getelementptr inbounds nuw %struct.Aig_Man_t_, ptr %83, i32 0, i32 3
  %85 = load ptr, ptr %84, align 8, !tbaa !10
  %86 = call i32 @Vec_PtrSize(ptr noundef %85)
  %87 = icmp slt i32 %82, %86
  br i1 %87, label %88, label %94

88:                                               ; preds = %81
  %89 = load ptr, ptr %2, align 8, !tbaa !3
  %90 = getelementptr inbounds nuw %struct.Aig_Man_t_, ptr %89, i32 0, i32 3
  %91 = load ptr, ptr %90, align 8, !tbaa !10
  %92 = load i32, ptr %5, align 4, !tbaa !8
  %93 = call ptr @Vec_PtrEntry(ptr noundef %91, i32 noundef %92)
  store ptr %93, ptr %3, align 8, !tbaa !23
  br label %94

94:                                               ; preds = %88, %81
  %95 = phi i1 [ false, %81 ], [ true, %88 ]
  br i1 %95, label %96, label %107

96:                                               ; preds = %94
  %97 = load ptr, ptr %3, align 8, !tbaa !23
  %98 = call ptr @Aig_ObjFanin0(ptr noundef %97)
  store ptr %98, ptr %4, align 8, !tbaa !23
  %99 = load ptr, ptr %4, align 8, !tbaa !23
  %100 = getelementptr inbounds nuw %struct.Aig_Obj_t_, ptr %99, i32 0, i32 3
  %101 = load i64, ptr %100, align 8
  %102 = and i64 %101, -17
  %103 = or i64 %102, 0
  store i64 %103, ptr %100, align 8
  br label %104

104:                                              ; preds = %96
  %105 = load i32, ptr %5, align 4, !tbaa !8
  %106 = add nsw i32 %105, 1
  store i32 %106, ptr %5, align 4, !tbaa !8
  br label %81, !llvm.loop !37

107:                                              ; preds = %94
  %108 = load i32, ptr %6, align 4, !tbaa !8
  call void @llvm.lifetime.end.p0(i64 4, ptr %6) #4
  call void @llvm.lifetime.end.p0(i64 4, ptr %5) #4
  call void @llvm.lifetime.end.p0(i64 8, ptr %4) #4
  call void @llvm.lifetime.end.p0(i64 8, ptr %3) #4
  ret i32 %108
}