; Function Attrs: nofree norecurse nosync nounwind memory(readwrite, inaccessiblemem: none) uwtable
define i32 @Saig_ManReportComplements(ptr noundef readonly captures(none) %0) local_unnamed_addr #3 {
.critedge:
  %1 = getelementptr i8, ptr %0, i64 140
  %.val39 = load i32, ptr %1, align 4, !tbaa !32
  %2 = getelementptr i8, ptr %0, i64 104
  %.val41 = load i32, ptr %2, align 8, !tbaa !24
  %3 = sub nsw i32 %.val39, %.val41
  %4 = getelementptr inbounds nuw i8, ptr %0, i64 24
  %5 = load ptr, ptr %4, align 8, !tbaa !21
  %6 = getelementptr i8, ptr %5, i64 4
  %.val3743 = load i32, ptr %6, align 4, !tbaa !33
  %7 = icmp slt i32 %3, %.val3743
  br i1 %7, label %.lr.ph.preheader, label %.critedge2

.lr.ph.preheader:                                 ; preds = %.critedge
  %8 = sext i32 %3 to i64
  br label %.lr.ph

.lr.ph:                                           ; preds = %.lr.ph.preheader, %24
  %9 = phi ptr [ %5, %.lr.ph.preheader ], [ %25, %24 ]
  %indvars.iv = phi i64 [ %8, %.lr.ph.preheader ], [ %indvars.iv.next, %24 ]
  %.045 = phi i32 [ 0, %.lr.ph.preheader ], [ %.1, %24 ]
  %10 = getelementptr i8, ptr %9, i64 8
  %.val32 = load ptr, ptr %10, align 8, !tbaa !22
  %11 = getelementptr inbounds ptr, ptr %.val32, i64 %indvars.iv
  %12 = load ptr, ptr %11, align 8, !tbaa !25
  %13 = getelementptr i8, ptr %12, i64 8
  %.val35 = load ptr, ptr %13, align 8, !tbaa !26
  %14 = ptrtoint ptr %.val35 to i64
  %15 = and i64 %14, -2
  %16 = inttoptr i64 %15 to ptr
  %17 = getelementptr inbounds nuw i8, ptr %16, i64 24
  %18 = load i64, ptr %17, align 8
  %19 = and i64 %18, 16
  %.not = icmp eq i64 %19, 0
  br i1 %.not, label %22, label %20

20:                                               ; preds = %.lr.ph
  %21 = add nsw i32 %.045, 1
  br label %24

22:                                               ; preds = %.lr.ph
  %23 = or disjoint i64 %18, 16
  store i64 %23, ptr %17, align 8
  %.pre = load ptr, ptr %4, align 8, !tbaa !21
  br label %24

24:                                               ; preds = %20, %22
  %25 = phi ptr [ %9, %20 ], [ %.pre, %22 ]
  %.1 = phi i32 [ %21, %20 ], [ %.045, %22 ]
  %indvars.iv.next = add nsw i64 %indvars.iv, 1
  %26 = getelementptr i8, ptr %25, i64 4
  %.val37 = load i32, ptr %26, align 4, !tbaa !33
  %27 = sext i32 %.val37 to i64
  %28 = icmp slt i64 %indvars.iv.next, %27
  br i1 %28, label %.lr.ph, label %.critedge2.loopexit, !llvm.loop !34

.critedge2.loopexit:                              ; preds = %24
  %.val40.pre = load i32, ptr %1, align 4, !tbaa !32
  %.val42.pre = load i32, ptr %2, align 8, !tbaa !24
  %.pre56 = sub nsw i32 %.val40.pre, %.val42.pre
  br label %.critedge2

.critedge2:                                       ; preds = %.critedge2.loopexit, %.critedge
  %.pre-phi = phi i32 [ %.pre56, %.critedge2.loopexit ], [ %3, %.critedge ]
  %.val3846 = phi i32 [ %.val37, %.critedge2.loopexit ], [ %.val3743, %.critedge ]
  %29 = phi ptr [ %25, %.critedge2.loopexit ], [ %5, %.critedge ]
  %.0.lcssa = phi i32 [ %.1, %.critedge2.loopexit ], [ 0, %.critedge ]
  %30 = icmp slt i32 %.pre-phi, %.val3846
  br i1 %30, label %.lr.ph48.preheader, label %.critedge4

.lr.ph48.preheader:                               ; preds = %.critedge2
  %31 = sext i32 %.pre-phi to i64
  br label %.lr.ph48

.lr.ph48:                                         ; preds = %.lr.ph48.preheader, %.lr.ph48
  %indvars.iv50 = phi i64 [ %31, %.lr.ph48.preheader ], [ %indvars.iv.next51, %.lr.ph48 ]
  %32 = phi ptr [ %29, %.lr.ph48.preheader ], [ %43, %.lr.ph48 ]
  %33 = getelementptr i8, ptr %32, i64 8
  %.val = load ptr, ptr %33, align 8, !tbaa !22
  %34 = getelementptr inbounds ptr, ptr %.val, i64 %indvars.iv50
  %35 = load ptr, ptr %34, align 8, !tbaa !25
  %36 = getelementptr i8, ptr %35, i64 8
  %.val34 = load ptr, ptr %36, align 8, !tbaa !26
  %37 = ptrtoint ptr %.val34 to i64
  %38 = and i64 %37, -2
  %39 = inttoptr i64 %38 to ptr
  %40 = getelementptr inbounds nuw i8, ptr %39, i64 24
  %41 = load i64, ptr %40, align 8
  %42 = and i64 %41, -17
  store i64 %42, ptr %40, align 8
  %indvars.iv.next51 = add nsw i64 %indvars.iv50, 1
  %43 = load ptr, ptr %4, align 8, !tbaa !21
  %44 = getelementptr i8, ptr %43, i64 4
  %.val38 = load i32, ptr %44, align 4, !tbaa !33
  %45 = sext i32 %.val38 to i64
  %46 = icmp slt i64 %indvars.iv.next51, %45
  br i1 %46, label %.lr.ph48, label %.critedge4, !llvm.loop !35

.critedge4:                                       ; preds = %.lr.ph48, %.critedge2
  ret i32 %.0.lcssa
}